; Function Attrs: mustprogress nofree norecurse nosync nounwind willreturn memory(argmem: read) uwtable
define hidden noundef i64 @_ZNK20ShenandoahHeapRegion17get_shared_allocsEv(ptr nocapture noundef nonnull readonly align 8 dereferenceable(96) %0) local_unnamed_addr #5 align 2 {
  %2 = getelementptr inbounds i8, ptr %0, i64 8
  %3 = load ptr, ptr %2, align 8
  %4 = getelementptr inbounds i8, ptr %0, i64 48
  %5 = load ptr, ptr %4, align 8
  %6 = ptrtoint ptr %5 to i64
  %7 = ptrtoint ptr %3 to i64
  %8 = getelementptr inbounds i8, ptr %0, i64 56
  %9 = load i64, ptr %8, align 8
  %10 = getelementptr inbounds i8, ptr %0, i64 64
  %11 = load i64, ptr %10, align 8
  %12 = add i64 %11, %9
  %13 = shl i64 %12, 3
  %14 = add i64 %13, %7
  %15 = sub i64 %6, %14
  ret i64 %15
}